target datalayout = "e-m:e-p270:32:32-p271:32:32-p272:64:64-i64:64-i128:128-f80:128-n8:16:32:64-S128"
target triple = "x86_64-pc-linux-gnu"

%struct.AVFilterContext = type { ptr, ptr, ptr, ptr, ptr, i32, ptr, ptr, i32, ptr, ptr, i32, i32, ptr, ptr, ptr, ptr, i32, ptr, i32, i32 }
%struct.ColorCorrectContext = type { ptr, float, float, float, float, float, i32, i32, float, float, i32, i32, [4 x i32], [4 x i32], ptr, ptr, ptr, ptr, ptr }
%struct.AVChannelLayout = type { i32, i32, %union.anon.1, ptr }
%union.anon.1 = type { i64 }
%struct.AVRational = type { i32, i32 }
%struct.AVFrame = type { [8 x ptr], [8 x i32], ptr, i32, i32, i32, i32, i32, %struct.AVRational, i64, i64, %struct.AVRational, i32, ptr, i32, i32, [8 x ptr], ptr, i32, ptr, i32, i32, i32, i32, i32, i32, i32, i64, ptr, i32, ptr, ptr, i64, i64, i64, i64, ptr, %struct.AVChannelLayout, i64 }

; Function Attrs: alwaysinline nounwind willreturn memory(none) uwtable
define internal i32 @av_clip_uintp2_c(i32 noundef %0, i32 noundef %1) #7 {
  %3 = alloca i32, align 4
  %4 = alloca i32, align 4
  %5 = alloca i32, align 4
  store i32 %0, ptr %4, align 4, !tbaa !41
  store i32 %1, ptr %5, align 4, !tbaa !41
  %6 = load i32, ptr %4, align 4, !tbaa !41
  %7 = load i32, ptr %5, align 4, !tbaa !41
  %8 = shl i32 1, %7
  %9 = sub i32 %8, 1
  %10 = xor i32 %9, -1
  %11 = and i32 %6, %10
  %12 = icmp ne i32 %11, 0
  br i1 %12, label %13, label %21

13:                                               ; preds = %2
  %14 = load i32, ptr %4, align 4, !tbaa !41
  %15 = xor i32 %14, -1
  %16 = ashr i32 %15, 31
  %17 = load i32, ptr %5, align 4, !tbaa !41
  %18 = shl i32 1, %17
  %19 = sub i32 %18, 1
  %20 = and i32 %16, %19
  store i32 %20, ptr %3, align 4
  br label %23

21:                                               ; preds = %2
  %22 = load i32, ptr %4, align 4, !tbaa !41
  store i32 %22, ptr %3, align 4
  br label %23

23:                                               ; preds = %21, %13
  %24 = load i32, ptr %3, align 4
  ret i32 %24
}

; Function Attrs: nounwind uwtable
define internal i32 @colorcorrect_slice16(ptr noundef %0, ptr noundef %1, i32 noundef %2, i32 noundef %3) #2 {
  %5 = alloca ptr, align 8
  %6 = alloca ptr, align 8
  %7 = alloca i32, align 4
  %8 = alloca i32, align 4
  %9 = alloca ptr, align 8
  %10 = alloca ptr, align 8
  %11 = alloca i32, align 4
  %12 = alloca float, align 4
  %13 = alloca float, align 4
  %14 = alloca i32, align 4
  %15 = alloca i32, align 4
  %16 = alloca i32, align 4
  %17 = alloca i32, align 4
  %18 = alloca i32, align 4
  %19 = alloca i32, align 4
  %20 = alloca i64, align 8
  %21 = alloca i64, align 8
  %22 = alloca i64, align 8
  %23 = alloca ptr, align 8
  %24 = alloca ptr, align 8
  %25 = alloca ptr, align 8
  %26 = alloca float, align 4
  %27 = alloca float, align 4
  %28 = alloca float, align 4
  %29 = alloca float, align 4
  %30 = alloca float, align 4
  %31 = alloca i32, align 4
  %32 = alloca i32, align 4
  %33 = alloca i32, align 4
  %34 = alloca float, align 4
  %35 = alloca float, align 4
  %36 = alloca float, align 4
  %37 = alloca float, align 4
  %38 = alloca float, align 4
  store ptr %0, ptr %5, align 8, !tbaa !4
  store ptr %1, ptr %6, align 8, !tbaa !71
  store i32 %2, ptr %7, align 4, !tbaa !41
  store i32 %3, ptr %8, align 4, !tbaa !41
  call void @llvm.lifetime.start.p0(i64 8, ptr %9) #9
  %39 = load ptr, ptr %5, align 8, !tbaa !4
  %40 = getelementptr inbounds nuw %struct.AVFilterContext, ptr %39, i32 0, i32 9
  %41 = load ptr, ptr %40, align 8, !tbaa !9
  store ptr %41, ptr %9, align 8, !tbaa !22
  call void @llvm.lifetime.start.p0(i64 8, ptr %10) #9
  %42 = load ptr, ptr %6, align 8, !tbaa !71
  store ptr %42, ptr %10, align 8, !tbaa !26
  call void @llvm.lifetime.start.p0(i64 4, ptr %11) #9
  %43 = load ptr, ptr %9, align 8, !tbaa !22
  %44 = getelementptr inbounds nuw %struct.ColorCorrectContext, ptr %43, i32 0, i32 7
  %45 = load i32, ptr %44, align 8, !tbaa !58
  store i32 %45, ptr %11, align 4, !tbaa !41
  call void @llvm.lifetime.start.p0(i64 4, ptr %12) #9
  %46 = load ptr, ptr %9, align 8, !tbaa !22
  %47 = getelementptr inbounds nuw %struct.ColorCorrectContext, ptr %46, i32 0, i32 8
  %48 = load float, ptr %47, align 4, !tbaa !59
  store float %48, ptr %12, align 4, !tbaa !42
  call void @llvm.lifetime.start.p0(i64 4, ptr %13) #9
  %49 = load ptr, ptr %9, align 8, !tbaa !22
  %50 = getelementptr inbounds nuw %struct.ColorCorrectContext, ptr %49, i32 0, i32 9
  %51 = load float, ptr %50, align 8, !tbaa !60
  store float %51, ptr %13, align 4, !tbaa !42
  call void @llvm.lifetime.start.p0(i64 4, ptr %14) #9
  %52 = load ptr, ptr %9, align 8, !tbaa !22
  %53 = getelementptr inbounds nuw %struct.ColorCorrectContext, ptr %52, i32 0, i32 10
  %54 = load i32, ptr %53, align 4, !tbaa !67
  store i32 %54, ptr %14, align 4, !tbaa !41
  call void @llvm.lifetime.start.p0(i64 4, ptr %15) #9
  %55 = load ptr, ptr %9, align 8, !tbaa !22
  %56 = getelementptr inbounds nuw %struct.ColorCorrectContext, ptr %55, i32 0, i32 11
  %57 = load i32, ptr %56, align 8, !tbaa !69
  store i32 %57, ptr %15, align 4, !tbaa !41
  call void @llvm.lifetime.start.p0(i64 4, ptr %16) #9
  %58 = load ptr, ptr %9, align 8, !tbaa !22
  %59 = getelementptr inbounds nuw %struct.ColorCorrectContext, ptr %58, i32 0, i32 13
  %60 = getelementptr inbounds [4 x i32], ptr %59, i64 0, i64 1
  %61 = load i32, ptr %60, align 4, !tbaa !41
  store i32 %61, ptr %16, align 4, !tbaa !41
  call void @llvm.lifetime.start.p0(i64 4, ptr %17) #9
  %62 = load ptr, ptr %9, align 8, !tbaa !22
  %63 = getelementptr inbounds nuw %struct.ColorCorrectContext, ptr %62, i32 0, i32 12
  %64 = getelementptr inbounds [4 x i32], ptr %63, i64 0, i64 1
  %65 = load i32, ptr %64, align 4, !tbaa !41
  store i32 %65, ptr %17, align 4, !tbaa !41
  call void @llvm.lifetime.start.p0(i64 4, ptr %18) #9
  %66 = load i32, ptr %17, align 4, !tbaa !41
  %67 = load i32, ptr %7, align 4, !tbaa !41
  %68 = mul nsw i32 %66, %67
  %69 = load i32, ptr %8, align 4, !tbaa !41
  %70 = sdiv i32 %68, %69
  store i32 %70, ptr %18, align 4, !tbaa !41
  call void @llvm.lifetime.start.p0(i64 4, ptr %19) #9
  %71 = load i32, ptr %17, align 4, !tbaa !41
  %72 = load i32, ptr %7, align 4, !tbaa !41
  %73 = add nsw i32 %72, 1
  %74 = mul nsw i32 %71, %73
  %75 = load i32, ptr %8, align 4, !tbaa !41
  %76 = sdiv i32 %74, %75
  store i32 %76, ptr %19, align 4, !tbaa !41
  call void @llvm.lifetime.start.p0(i64 8, ptr %20) #9
  %77 = load ptr, ptr %10, align 8, !tbaa !26
  %78 = getelementptr inbounds nuw %struct.AVFrame, ptr %77, i32 0, i32 1
  %79 = getelementptr inbounds [8 x i32], ptr %78, i64 0, i64 0
  %80 = load i32, ptr %79, align 8, !tbaa !41
  %81 = sdiv i32 %80, 2
  %82 = sext i32 %81 to i64
  store i64 %82, ptr %20, align 8, !tbaa !72
  call void @llvm.lifetime.start.p0(i64 8, ptr %21) #9
  %83 = load ptr, ptr %10, align 8, !tbaa !26
  %84 = getelementptr inbounds nuw %struct.AVFrame, ptr %83, i32 0, i32 1
  %85 = getelementptr inbounds [8 x i32], ptr %84, i64 0, i64 1
  %86 = load i32, ptr %85, align 4, !tbaa !41
  %87 = sdiv i32 %86, 2
  %88 = sext i32 %87 to i64
  store i64 %88, ptr %21, align 8, !tbaa !72
  call void @llvm.lifetime.start.p0(i64 8, ptr %22) #9
  %89 = load ptr, ptr %10, align 8, !tbaa !26
  %90 = getelementptr inbounds nuw %struct.AVFrame, ptr %89, i32 0, i32 1
  %91 = getelementptr inbounds [8 x i32], ptr %90, i64 0, i64 2
  %92 = load i32, ptr %91, align 8, !tbaa !41
  %93 = sdiv i32 %92, 2
  %94 = sext i32 %93 to i64
  store i64 %94, ptr %22, align 8, !tbaa !72
  call void @llvm.lifetime.start.p0(i64 8, ptr %23) #9
  %95 = load ptr, ptr %10, align 8, !tbaa !26
  %96 = getelementptr inbounds nuw %struct.AVFrame, ptr %95, i32 0, i32 0
  %97 = getelementptr inbounds [8 x ptr], ptr %96, i64 0, i64 0
  %98 = load ptr, ptr %97, align 8, !tbaa !73
  %99 = load i32, ptr %18, align 4, !tbaa !41
  %100 = load i32, ptr %15, align 4, !tbaa !41
  %101 = mul nsw i32 %99, %100
  %102 = sext i32 %101 to i64
  %103 = load i64, ptr %20, align 8, !tbaa !72
  %104 = mul nsw i64 %102, %103
  %105 = getelementptr inbounds i16, ptr %98, i64 %104
  store ptr %105, ptr %23, align 8, !tbaa !78
  call void @llvm.lifetime.start.p0(i64 8, ptr %24) #9
  %106 = load ptr, ptr %10, align 8, !tbaa !26
  %107 = getelementptr inbounds nuw %struct.AVFrame, ptr %106, i32 0, i32 0
  %108 = getelementptr inbounds [8 x ptr], ptr %107, i64 0, i64 1
  %109 = load ptr, ptr %108, align 8, !tbaa !73
  %110 = load i32, ptr %18, align 4, !tbaa !41
  %111 = sext i32 %110 to i64
  %112 = load i64, ptr %21, align 8, !tbaa !72
  %113 = mul nsw i64 %111, %112
  %114 = getelementptr inbounds i16, ptr %109, i64 %113
  store ptr %114, ptr %24, align 8, !tbaa !78
  call void @llvm.lifetime.start.p0(i64 8, ptr %25) #9
  %115 = load ptr, ptr %10, align 8, !tbaa !26
  %116 = getelementptr inbounds nuw %struct.AVFrame, ptr %115, i32 0, i32 0
  %117 = getelementptr inbounds [8 x ptr], ptr %116, i64 0, i64 2
  %118 = load ptr, ptr %117, align 8, !tbaa !73
  %119 = load i32, ptr %18, align 4, !tbaa !41
  %120 = sext i32 %119 to i64
  %121 = load i64, ptr %22, align 8, !tbaa !72
  %122 = mul nsw i64 %120, %121
  %123 = getelementptr inbounds i16, ptr %118, i64 %122
  store ptr %123, ptr %25, align 8, !tbaa !78
  call void @llvm.lifetime.start.p0(i64 4, ptr %26) #9
  %124 = load ptr, ptr %9, align 8, !tbaa !22
  %125 = getelementptr inbounds nuw %struct.ColorCorrectContext, ptr %124, i32 0, i32 5
  %126 = load float, ptr %125, align 8, !tbaa !74
  store float %126, ptr %26, align 4, !tbaa !42
  call void @llvm.lifetime.start.p0(i64 4, ptr %27) #9
  %127 = load ptr, ptr %9, align 8, !tbaa !22
  %128 = getelementptr inbounds nuw %struct.ColorCorrectContext, ptr %127, i32 0, i32 2
  %129 = load float, ptr %128, align 4, !tbaa !47
  store float %129, ptr %27, align 4, !tbaa !42
  call void @llvm.lifetime.start.p0(i64 4, ptr %28) #9
  %130 = load ptr, ptr %9, align 8, !tbaa !22
  %131 = getelementptr inbounds nuw %struct.ColorCorrectContext, ptr %130, i32 0, i32 1
  %132 = load float, ptr %131, align 8, !tbaa !48
  store float %132, ptr %28, align 4, !tbaa !42
  call void @llvm.lifetime.start.p0(i64 4, ptr %29) #9
  %133 = load ptr, ptr %9, align 8, !tbaa !22
  %134 = getelementptr inbounds nuw %struct.ColorCorrectContext, ptr %133, i32 0, i32 4
  %135 = load float, ptr %134, align 4, !tbaa !49
  %136 = load float, ptr %27, align 4, !tbaa !42
  %137 = fsub nsz float %135, %136
  store float %137, ptr %29, align 4, !tbaa !42
  call void @llvm.lifetime.start.p0(i64 4, ptr %30) #9
  %138 = load ptr, ptr %9, align 8, !tbaa !22
  %139 = getelementptr inbounds nuw %struct.ColorCorrectContext, ptr %138, i32 0, i32 3
  %140 = load float, ptr %139, align 8, !tbaa !50
  %141 = load float, ptr %28, align 4, !tbaa !42
  %142 = fsub nsz float %140, %141
  store float %142, ptr %30, align 4, !tbaa !42
  call void @llvm.lifetime.start.p0(i64 4, ptr %31) #9
  %143 = load i32, ptr %18, align 4, !tbaa !41
  store i32 %143, ptr %31, align 4, !tbaa !41
  br label %144

144:                                              ; preds = %241, %4
  %145 = load i32, ptr %31, align 4, !tbaa !41
  %146 = load i32, ptr %19, align 4, !tbaa !41
  %147 = icmp slt i32 %145, %146
  br i1 %147, label %149, label %148

148:                                              ; preds = %144
  store i32 2, ptr %32, align 4
  call void @llvm.lifetime.end.p0(i64 4, ptr %31) #9
  br label %244

149:                                              ; preds = %144
  call void @llvm.lifetime.start.p0(i64 4, ptr %33) #9
  store i32 0, ptr %33, align 4, !tbaa !41
  br label %150

150:                                              ; preds = %225, %149
  %151 = load i32, ptr %33, align 4, !tbaa !41
  %152 = load i32, ptr %16, align 4, !tbaa !41
  %153 = icmp slt i32 %151, %152
  br i1 %153, label %155, label %154

154:                                              ; preds = %150
  store i32 5, ptr %32, align 4
  call void @llvm.lifetime.end.p0(i64 4, ptr %33) #9
  br label %228

155:                                              ; preds = %150
  call void @llvm.lifetime.start.p0(i64 4, ptr %34) #9
  %156 = load ptr, ptr %23, align 8, !tbaa !78
  %157 = load i32, ptr %33, align 4, !tbaa !41
  %158 = load i32, ptr %14, align 4, !tbaa !41
  %159 = mul nsw i32 %157, %158
  %160 = sext i32 %159 to i64
  %161 = getelementptr inbounds i16, ptr %156, i64 %160
  %162 = load i16, ptr %161, align 2, !tbaa !80
  %163 = zext i16 %162 to i32
  %164 = sitofp i32 %163 to float
  %165 = load float, ptr %13, align 4, !tbaa !42
  %166 = fmul nsz float %164, %165
  store float %166, ptr %34, align 4, !tbaa !42
  call void @llvm.lifetime.start.p0(i64 4, ptr %35) #9
  %167 = load ptr, ptr %24, align 8, !tbaa !78
  %168 = load i32, ptr %33, align 4, !tbaa !41
  %169 = sext i32 %168 to i64
  %170 = getelementptr inbounds i16, ptr %167, i64 %169
  %171 = load i16, ptr %170, align 2, !tbaa !80
  %172 = zext i16 %171 to i32
  %173 = sitofp i32 %172 to float
  %174 = load float, ptr %13, align 4, !tbaa !42
  %175 = call nsz float @llvm.fmuladd.f32(float %173, float %174, float -5.000000e-01)
  store float %175, ptr %35, align 4, !tbaa !42
  call void @llvm.lifetime.start.p0(i64 4, ptr %36) #9
  %176 = load ptr, ptr %25, align 8, !tbaa !78
  %177 = load i32, ptr %33, align 4, !tbaa !41
  %178 = sext i32 %177 to i64
  %179 = getelementptr inbounds i16, ptr %176, i64 %178
  %180 = load i16, ptr %179, align 2, !tbaa !80
  %181 = zext i16 %180 to i32
  %182 = sitofp i32 %181 to float
  %183 = load float, ptr %13, align 4, !tbaa !42
  %184 = call nsz float @llvm.fmuladd.f32(float %182, float %183, float -5.000000e-01)
  store float %184, ptr %36, align 4, !tbaa !42
  call void @llvm.lifetime.start.p0(i64 4, ptr %37) #9
  call void @llvm.lifetime.start.p0(i64 4, ptr %38) #9
  %185 = load float, ptr %26, align 4, !tbaa !42
  %186 = load float, ptr %35, align 4, !tbaa !42
  %187 = load float, ptr %34, align 4, !tbaa !42
  %188 = load float, ptr %29, align 4, !tbaa !42
  %189 = call nsz float @llvm.fmuladd.f32(float %187, float %188, float %186)
  %190 = load float, ptr %27, align 4, !tbaa !42
  %191 = fadd nsz float %189, %190
  %192 = fmul nsz float %185, %191
  store float %192, ptr %37, align 4, !tbaa !42
  %193 = load float, ptr %26, align 4, !tbaa !42
  %194 = load float, ptr %36, align 4, !tbaa !42
  %195 = load float, ptr %34, align 4, !tbaa !42
  %196 = load float, ptr %30, align 4, !tbaa !42
  %197 = call nsz float @llvm.fmuladd.f32(float %195, float %196, float %194)
  %198 = load float, ptr %28, align 4, !tbaa !42
  %199 = fadd nsz float %197, %198
  %200 = fmul nsz float %193, %199
  store float %200, ptr %38, align 4, !tbaa !42
  %201 = load float, ptr %37, align 4, !tbaa !42
  %202 = fadd nsz float %201, 5.000000e-01
  %203 = load float, ptr %12, align 4, !tbaa !42
  %204 = fmul nsz float %202, %203
  %205 = fptosi float %204 to i32
  %206 = load i32, ptr %11, align 4, !tbaa !41
  %207 = call i32 @av_clip_uintp2_c(i32 noundef %205, i32 noundef %206) #11
  %208 = trunc i32 %207 to i16
  %209 = load ptr, ptr %24, align 8, !tbaa !78
  %210 = load i32, ptr %33, align 4, !tbaa !41
  %211 = sext i32 %210 to i64
  %212 = getelementptr inbounds i16, ptr %209, i64 %211
  store i16 %208, ptr %212, align 2, !tbaa !80
  %213 = load float, ptr %38, align 4, !tbaa !42
  %214 = fadd nsz float %213, 5.000000e-01
  %215 = load float, ptr %12, align 4, !tbaa !42
  %216 = fmul nsz float %214, %215
  %217 = fptosi float %216 to i32
  %218 = load i32, ptr %11, align 4, !tbaa !41
  %219 = call i32 @av_clip_uintp2_c(i32 noundef %217, i32 noundef %218) #11
  %220 = trunc i32 %219 to i16
  %221 = load ptr, ptr %25, align 8, !tbaa !78
  %222 = load i32, ptr %33, align 4, !tbaa !41
  %223 = sext i32 %222 to i64
  %224 = getelementptr inbounds i16, ptr %221, i64 %223
  store i16 %220, ptr %224, align 2, !tbaa !80
  call void @llvm.lifetime.end.p0(i64 4, ptr %38) #9
  call void @llvm.lifetime.end.p0(i64 4, ptr %37) #9
  call void @llvm.lifetime.end.p0(i64 4, ptr %36) #9
  call void @llvm.lifetime.end.p0(i64 4, ptr %35) #9
  call void @llvm.lifetime.end.p0(i64 4, ptr %34) #9
  br label %225

225:                                              ; preds = %155
  %226 = load i32, ptr %33, align 4, !tbaa !41
  %227 = add nsw i32 %226, 1
  store i32 %227, ptr %33, align 4, !tbaa !41
  br label %150, !llvm.loop !82

228:                                              ; preds = %154
  %229 = load i64, ptr %20, align 8, !tbaa !72
  %230 = load i32, ptr %15, align 4, !tbaa !41
  %231 = sext i32 %230 to i64
  %232 = mul nsw i64 %229, %231
  %233 = load ptr, ptr %23, align 8, !tbaa !78
  %234 = getelementptr inbounds i16, ptr %233, i64 %232
  store ptr %234, ptr %23, align 8, !tbaa !78
  %235 = load i64, ptr %21, align 8, !tbaa !72
  %236 = load ptr, ptr %24, align 8, !tbaa !78
  %237 = getelementptr inbounds i16, ptr %236, i64 %235
  store ptr %237, ptr %24, align 8, !tbaa !78
  %238 = load i64, ptr %22, align 8, !tbaa !72
  %239 = load ptr, ptr %25, align 8, !tbaa !78
  %240 = getelementptr inbounds i16, ptr %239, i64 %238
  store ptr %240, ptr %25, align 8, !tbaa !78
  br label %241

241:                                              ; preds = %228
  %242 = load i32, ptr %31, align 4, !tbaa !41
  %243 = add nsw i32 %242, 1
  store i32 %243, ptr %31, align 4, !tbaa !41
  br label %144, !llvm.loop !83

244:                                              ; preds = %148
  store i32 1, ptr %32, align 4
  call void @llvm.lifetime.end.p0(i64 4, ptr %30) #9
  call void @llvm.lifetime.end.p0(i64 4, ptr %29) #9
  call void @llvm.lifetime.end.p0(i64 4, ptr %28) #9
  call void @llvm.lifetime.end.p0(i64 4, ptr %27) #9
  call void @llvm.lifetime.end.p0(i64 4, ptr %26) #9
  call void @llvm.lifetime.end.p0(i64 8, ptr %25) #9
  call void @llvm.lifetime.end.p0(i64 8, ptr %24) #9
  call void @llvm.lifetime.end.p0(i64 8, ptr %23) #9
  call void @llvm.lifetime.end.p0(i64 8, ptr %22) #9
  call void @llvm.lifetime.end.p0(i64 8, ptr %21) #9
  call void @llvm.lifetime.end.p0(i64 8, ptr %20) #9
  call void @llvm.lifetime.end.p0(i64 4, ptr %19) #9
  call void @llvm.lifetime.end.p0(i64 4, ptr %18) #9
  call void @llvm.lifetime.end.p0(i64 4, ptr %17) #9
  call void @llvm.lifetime.end.p0(i64 4, ptr %16) #9
  call void @llvm.lifetime.end.p0(i64 4, ptr %15) #9
  call void @llvm.lifetime.end.p0(i64 4, ptr %14) #9
  call void @llvm.lifetime.end.p0(i64 4, ptr %13) #9
  call void @llvm.lifetime.end.p0(i64 4, ptr %12) #9
  call void @llvm.lifetime.end.p0(i64 4, ptr %11) #9
  call void @llvm.lifetime.end.p0(i64 8, ptr %10) #9
  call void @llvm.lifetime.end.p0(i64 8, ptr %9) #9
  ret i32 0
}