; Function Attrs: nofree norecurse nosync nounwind memory(readwrite, inaccessiblemem: none) uwtable
define internal noundef i32 @colorcorrect_slice16(ptr noundef readonly captures(none) %0, ptr noundef readonly captures(none) %1, i32 noundef %2, i32 noundef %3) #4 {
  %5 = getelementptr inbounds nuw i8, ptr %0, i64 72
  %6 = load ptr, ptr %5, align 8, !tbaa !4
  %7 = getelementptr inbounds nuw i8, ptr %6, i64 36
  %8 = load float, ptr %7, align 4, !tbaa !52
  %9 = getelementptr inbounds nuw i8, ptr %6, i64 40
  %10 = load float, ptr %9, align 8, !tbaa !53
  %11 = getelementptr inbounds nuw i8, ptr %6, i64 44
  %12 = load i32, ptr %11, align 4, !tbaa !60
  %13 = getelementptr inbounds nuw i8, ptr %6, i64 72
  %14 = load i32, ptr %13, align 4, !tbaa !35
  %15 = getelementptr inbounds nuw i8, ptr %6, i64 56
  %16 = load i32, ptr %15, align 4, !tbaa !35
  %17 = mul nsw i32 %16, %2
  %18 = sdiv i32 %17, %3
  %19 = add nsw i32 %2, 1
  %20 = mul nsw i32 %16, %19
  %21 = sdiv i32 %20, %3
  %22 = getelementptr inbounds nuw i8, ptr %1, i64 68
  %23 = load i32, ptr %22, align 4, !tbaa !35
  %24 = sdiv i32 %23, 2
  %25 = sext i32 %24 to i64
  %26 = getelementptr inbounds nuw i8, ptr %1, i64 72
  %27 = load i32, ptr %26, align 8, !tbaa !35
  %28 = sdiv i32 %27, 2
  %29 = sext i32 %28 to i64
  %30 = getelementptr inbounds nuw i8, ptr %6, i64 24
  %31 = load float, ptr %30, align 8, !tbaa !64
  %32 = getelementptr inbounds nuw i8, ptr %6, i64 12
  %33 = load float, ptr %32, align 4, !tbaa !37
  %34 = getelementptr inbounds nuw i8, ptr %6, i64 8
  %35 = load float, ptr %34, align 8, !tbaa !38
  %36 = getelementptr inbounds nuw i8, ptr %6, i64 20
  %37 = load float, ptr %36, align 4, !tbaa !39
  %38 = fsub nsz float %37, %33
  %39 = getelementptr inbounds nuw i8, ptr %6, i64 16
  %40 = load float, ptr %39, align 8, !tbaa !40
  %41 = fsub nsz float %40, %35
  %42 = icmp slt i32 %18, %21
  br i1 %42, label %.preheader.lr.ph, label %._crit_edge91

.preheader.lr.ph:                                 ; preds = %4
  %43 = getelementptr inbounds nuw i8, ptr %1, i64 64
  %44 = load i32, ptr %43, align 8, !tbaa !35
  %45 = sdiv i32 %44, 2
  %46 = sext i32 %45 to i64
  %47 = getelementptr inbounds nuw i8, ptr %6, i64 48
  %48 = load i32, ptr %47, align 8, !tbaa !62
  %49 = getelementptr inbounds nuw i8, ptr %6, i64 32
  %50 = load i32, ptr %49, align 8, !tbaa !51
  %51 = icmp sgt i32 %14, 0
  %notmask.i = shl nsw i32 -1, %50
  %52 = xor i32 %notmask.i, -1
  %53 = sext i32 %48 to i64
  %54 = mul nsw i64 %46, %53
  br i1 %51, label %.preheader.us.preheader, label %._crit_edge91

.preheader.us.preheader:                          ; preds = %.preheader.lr.ph
  %55 = load ptr, ptr %1, align 8, !tbaa !65
  %56 = mul nsw i32 %18, %48
  %57 = sext i32 %56 to i64
  %58 = mul nsw i64 %46, %57
  %59 = getelementptr inbounds i16, ptr %55, i64 %58
  %60 = getelementptr inbounds nuw i8, ptr %1, i64 8
  %61 = load ptr, ptr %60, align 8, !tbaa !65
  %62 = sext i32 %18 to i64
  %63 = mul nsw i64 %25, %62
  %64 = getelementptr inbounds i16, ptr %61, i64 %63
  %65 = getelementptr inbounds nuw i8, ptr %1, i64 16
  %66 = load ptr, ptr %65, align 8, !tbaa !65
  %67 = mul nsw i64 %29, %62
  %68 = getelementptr inbounds i16, ptr %66, i64 %67
  %69 = sext i32 %12 to i64
  %wide.trip.count = zext nneg i32 %14 to i64
  br label %.preheader.us

.preheader.us:                                    ; preds = %.preheader.us.preheader, %._crit_edge.us
  %.090.us = phi ptr [ %102, %._crit_edge.us ], [ %59, %.preheader.us.preheader ]
  %.07889.us = phi ptr [ %103, %._crit_edge.us ], [ %64, %.preheader.us.preheader ]
  %.07988.us = phi ptr [ %104, %._crit_edge.us ], [ %68, %.preheader.us.preheader ]
  %.08087.us = phi i32 [ %105, %._crit_edge.us ], [ %18, %.preheader.us.preheader ]
  br label %70

70:                                               ; preds = %.preheader.us, %70
  %indvars.iv = phi i64 [ 0, %.preheader.us ], [ %indvars.iv.next, %70 ]
  %71 = mul nsw i64 %indvars.iv, %69
  %72 = getelementptr inbounds i16, ptr %.090.us, i64 %71
  %73 = load i16, ptr %72, align 2, !tbaa !69
  %74 = uitofp i16 %73 to float
  %75 = fmul nsz float %10, %74
  %76 = getelementptr inbounds nuw i16, ptr %.07889.us, i64 %indvars.iv
  %77 = load i16, ptr %76, align 2, !tbaa !69
  %78 = uitofp i16 %77 to float
  %79 = tail call nsz float @llvm.fmuladd.f32(float %78, float %10, float -5.000000e-01)
  %80 = getelementptr inbounds nuw i16, ptr %.07988.us, i64 %indvars.iv
  %81 = load i16, ptr %80, align 2, !tbaa !69
  %82 = uitofp i16 %81 to float
  %83 = tail call nsz float @llvm.fmuladd.f32(float %82, float %10, float -5.000000e-01)
  %84 = tail call nsz float @llvm.fmuladd.f32(float %75, float %38, float %79)
  %85 = fadd nsz float %33, %84
  %86 = fmul nsz float %31, %85
  %87 = tail call nsz float @llvm.fmuladd.f32(float %75, float %41, float %83)
  %88 = fadd nsz float %35, %87
  %89 = fmul nsz float %31, %88
  %90 = fadd nsz float %86, 5.000000e-01
  %91 = fmul nsz float %8, %90
  %92 = fptosi float %91 to i32
  %93 = and i32 %notmask.i, %92
  %.not.i.us = icmp eq i32 %93, 0
  %isnotneg.inv.i.us = icmp slt i32 %92, 0
  %94 = select i1 %isnotneg.inv.i.us, i32 0, i32 %52
  %.0.i.us = select i1 %.not.i.us, i32 %92, i32 %94
  %95 = trunc i32 %.0.i.us to i16
  store i16 %95, ptr %76, align 2, !tbaa !69
  %96 = fadd nsz float %89, 5.000000e-01
  %97 = fmul nsz float %8, %96
  %98 = fptosi float %97 to i32
  %99 = and i32 %notmask.i, %98
  %.not.i83.us = icmp eq i32 %99, 0
  %isnotneg.inv.i84.us = icmp slt i32 %98, 0
  %100 = select i1 %isnotneg.inv.i84.us, i32 0, i32 %52
  %.0.i85.us = select i1 %.not.i83.us, i32 %98, i32 %100
  %101 = trunc i32 %.0.i85.us to i16
  store i16 %101, ptr %80, align 2, !tbaa !69
  %indvars.iv.next = add nuw nsw i64 %indvars.iv, 1
  %exitcond.not = icmp eq i64 %indvars.iv.next, %wide.trip.count
  br i1 %exitcond.not, label %._crit_edge.us, label %70, !llvm.loop !71

._crit_edge.us:                                   ; preds = %70
  %102 = getelementptr inbounds i16, ptr %.090.us, i64 %54
  %103 = getelementptr inbounds i16, ptr %.07889.us, i64 %25
  %104 = getelementptr inbounds i16, ptr %.07988.us, i64 %29
  %105 = add nsw i32 %.08087.us, 1
  %exitcond94.not = icmp eq i32 %105, %21
  br i1 %exitcond94.not, label %._crit_edge91, label %.preheader.us, !llvm.loop !72

._crit_edge91:                                    ; preds = %._crit_edge.us, %.preheader.lr.ph, %4
  ret i32 0
}